target datalayout = "e-m:e-p270:32:32-p271:32:32-p272:64:64-i64:64-i128:128-f80:128-n8:16:32:64-S128"
target triple = "x86_64-pc-linux-gnu"

%struct.H5VL_connector_t = type { ptr, i64, ptr, ptr }

@.str = private unnamed_addr constant [106 x i8] c"generated/home/dtcxzyw/WorkSpace/Projects/compilers/llvm-opt-benchmark/bench/hdf5/hdf5/src/H5VLcallback.c\00", align 1
@H5E_ARGS_g = external global i64, align 8
@H5E_BADTYPE_g = external global i64, align 8
@.str.1 = private unnamed_addr constant [23 x i8] c"not a VOL connector ID\00", align 1
@H5E_VOL_g = external global i64, align 8
@H5E_CANTOPERATE_g = external global i64, align 8
@__func__.H5VLfile_specific = private unnamed_addr constant [18 x i8] c"H5VLfile_specific\00", align 1
@.str.95 = private unnamed_addr constant [41 x i8] c"unable to execute file specific callback\00", align 1

; Function Attrs: nounwind uwtable
define i32 @H5VLfile_specific(ptr noundef %0, i64 noundef %1, ptr noundef %2, i64 noundef %3, ptr noundef %4) #0 {
  %6 = alloca ptr, align 8
  %7 = alloca i64, align 8
  %8 = alloca ptr, align 8
  %9 = alloca i64, align 8
  %10 = alloca ptr, align 8
  %11 = alloca ptr, align 8
  %12 = alloca i32, align 4
  %13 = alloca i8, align 1
  store ptr %0, ptr %6, align 8, !tbaa !42
  store i64 %1, ptr %7, align 8, !tbaa !3
  store ptr %2, ptr %8, align 8, !tbaa !128
  store i64 %3, ptr %9, align 8, !tbaa !3
  store ptr %4, ptr %10, align 8, !tbaa !42
  call void @llvm.lifetime.start.p0(i64 8, ptr %11) #8
  call void @llvm.lifetime.start.p0(i64 4, ptr %12) #8
  store i32 0, ptr %12, align 4, !tbaa !7
  call void @llvm.lifetime.start.p0(i64 1, ptr %13) #8
  store i8 0, ptr %13, align 1, !tbaa !9
  %14 = load i64, ptr %7, align 8, !tbaa !3
  %15 = call ptr @H5I_object_verify(i64 noundef %14, i32 noundef 9)
  store ptr %15, ptr %11, align 8, !tbaa !11
  %16 = icmp eq ptr null, %15
  br i1 %16, label %17, label %36

17:                                               ; preds = %5
  br label %18

18:                                               ; preds = %17
  br label %19

19:                                               ; preds = %18
  br label %20

20:                                               ; preds = %19
  %21 = load i64, ptr @H5E_ARGS_g, align 8, !tbaa !3
  %22 = load i64, ptr @H5E_BADTYPE_g, align 8, !tbaa !3
  %23 = call i32 (ptr, ptr, i32, i64, i64, ptr, ...) @H5E_printf_stack(ptr noundef @.str, ptr noundef @__func__.H5VLfile_specific, i32 noundef 4142, i64 noundef %21, i64 noundef %22, ptr noundef @.str.1)
  br label %24

24:                                               ; preds = %20
  br label %25

25:                                               ; preds = %24
  store i8 1, ptr %13, align 1, !tbaa !9
  %26 = load i8, ptr %13, align 1, !tbaa !9, !range !14, !noundef !15
  %27 = trunc i8 %26 to i1
  %28 = zext i1 %27 to i8
  store i8 %28, ptr %13, align 1, !tbaa !9
  br label %29

29:                                               ; preds = %25
  br label %30

30:                                               ; preds = %29
  br label %31

31:                                               ; preds = %30
  store i32 -1, ptr %12, align 4, !tbaa !7
  br label %66

32:                                               ; No predecessors!
  br label %33

33:                                               ; preds = %32
  br label %34

34:                                               ; preds = %33
  br label %35

35:                                               ; preds = %34
  br label %36

36:                                               ; preds = %35, %5
  %37 = load ptr, ptr %6, align 8, !tbaa !42
  %38 = load ptr, ptr %11, align 8, !tbaa !11
  %39 = getelementptr inbounds nuw %struct.H5VL_connector_t, ptr %38, i32 0, i32 0
  %40 = load ptr, ptr %39, align 8, !tbaa !16
  %41 = load ptr, ptr %8, align 8, !tbaa !128
  %42 = load i64, ptr %9, align 8, !tbaa !3
  %43 = load ptr, ptr %10, align 8, !tbaa !42
  %44 = call i32 @H5VL__file_specific(ptr noundef %37, ptr noundef %40, ptr noundef %41, i64 noundef %42, ptr noundef %43)
  %45 = icmp slt i32 %44, 0
  br i1 %45, label %46, label %65

46:                                               ; preds = %36
  br label %47

47:                                               ; preds = %46
  br label %48

48:                                               ; preds = %47
  br label %49

49:                                               ; preds = %48
  %50 = load i64, ptr @H5E_VOL_g, align 8, !tbaa !3
  %51 = load i64, ptr @H5E_CANTOPERATE_g, align 8, !tbaa !3
  %52 = call i32 (ptr, ptr, i32, i64, i64, ptr, ...) @H5E_printf_stack(ptr noundef @.str, ptr noundef @__func__.H5VLfile_specific, i32 noundef 4146, i64 noundef %50, i64 noundef %51, ptr noundef @.str.95)
  br label %53

53:                                               ; preds = %49
  br label %54

54:                                               ; preds = %53
  store i8 1, ptr %13, align 1, !tbaa !9
  %55 = load i8, ptr %13, align 1, !tbaa !9, !range !14, !noundef !15
  %56 = trunc i8 %55 to i1
  %57 = zext i1 %56 to i8
  store i8 %57, ptr %13, align 1, !tbaa !9
  br label %58

58:                                               ; preds = %54
  br label %59

59:                                               ; preds = %58
  br label %60

60:                                               ; preds = %59
  store i32 -1, ptr %12, align 4, !tbaa !7
  br label %66

61:                                               ; No predecessors!
  br label %62

62:                                               ; preds = %61
  br label %63

63:                                               ; preds = %62
  br label %64

64:                                               ; preds = %63
  br label %65

65:                                               ; preds = %64, %36
  br label %66

66:                                               ; preds = %65, %60, %31
  %67 = load i8, ptr %13, align 1, !tbaa !9, !range !14, !noundef !15
  %68 = trunc i8 %67 to i1
  %69 = xor i1 %68, true
  %70 = xor i1 %69, true
  %71 = zext i1 %70 to i32
  %72 = sext i32 %71 to i64
  %73 = call i64 @llvm.expect.i64(i64 %72, i64 0)
  %74 = icmp ne i64 %73, 0
  br i1 %74, label %75, label %77

75:                                               ; preds = %66
  %76 = call i32 @H5E_dump_api_stack()
  br label %77

77:                                               ; preds = %75, %66
  %78 = load i32, ptr %12, align 4, !tbaa !7
  call void @llvm.lifetime.end.p0(i64 1, ptr %13) #8
  call void @llvm.lifetime.end.p0(i64 4, ptr %12) #8
  call void @llvm.lifetime.end.p0(i64 8, ptr %11) #8
  ret i32 %78
}