; Function Attrs: nounwind uwtable
define range(i32 -1, 1) i32 @H5VLfile_specific(ptr noundef %0, i64 noundef %1, ptr noundef %2, i64 noundef %3, ptr noundef %4) local_unnamed_addr #0 {
  %6 = tail call ptr @H5I_object_verify(i64 noundef %1, i32 noundef 9) #7
  %7 = icmp eq ptr %6, null
  br i1 %7, label %8, label %12, !prof !41

8:                                                ; preds = %5
  %9 = load i64, ptr @H5E_ARGS_g, align 8, !tbaa !3
  %10 = load i64, ptr @H5E_BADTYPE_g, align 8, !tbaa !3
  %11 = tail call i32 (ptr, ptr, i32, i64, i64, ptr, ...) @H5E_printf_stack(ptr noundef nonnull @.str, ptr noundef nonnull @__func__.H5VLfile_specific, i32 noundef 4142, i64 noundef %9, i64 noundef %10, ptr noundef nonnull @.str.1) #7
  br label %20

12:                                               ; preds = %5
  %13 = load ptr, ptr %6, align 8, !tbaa !7
  %14 = tail call fastcc i32 @H5VL__file_specific(ptr noundef %0, ptr noundef %13, ptr noundef %2, i64 noundef %3, ptr noundef %4)
  %15 = icmp slt i32 %14, 0
  br i1 %15, label %16, label %22, !prof !41

16:                                               ; preds = %12
  %17 = load i64, ptr @H5E_VOL_g, align 8, !tbaa !3
  %18 = load i64, ptr @H5E_CANTOPERATE_g, align 8, !tbaa !3
  %19 = tail call i32 (ptr, ptr, i32, i64, i64, ptr, ...) @H5E_printf_stack(ptr noundef nonnull @.str, ptr noundef nonnull @__func__.H5VLfile_specific, i32 noundef 4146, i64 noundef %17, i64 noundef %18, ptr noundef nonnull @.str.95) #7
  br label %20

20:                                               ; preds = %8, %16
  %21 = tail call i32 @H5E_dump_api_stack() #7
  br label %22

22:                                               ; preds = %12, %20
  %.0913 = phi i32 [ -1, %20 ], [ 0, %12 ]
  ret i32 %.0913
}